; Function Attrs: nounwind uwtable
define hidden void @je_arena_migrate(ptr noundef initializes((152, 160)) %0, ptr noundef %1, ptr noundef %2) local_unnamed_addr #2 {
  tail call void @je_arena_nthreads_dec(ptr noundef %1, i1 noundef zeroext false) #20
  tail call void @je_arena_nthreads_inc(ptr noundef %2, i1 noundef zeroext false) #20
  %4 = getelementptr inbounds nuw i8, ptr %0, i64 152
  store ptr %2, ptr %4, align 8, !tbaa !50
  %5 = tail call i32 @je_arena_nthreads_get(ptr noundef %1, i1 noundef zeroext false) #20
  %6 = icmp eq i32 %5, 0
  br i1 %6, label %7, label %8

7:                                                ; preds = %3
  tail call void @je_arena_decay(ptr noundef nonnull %0, ptr noundef %1, i1 noundef zeroext false, i1 noundef zeroext true) #20
  br label %8

8:                                                ; preds = %7, %3
  ret void
}